target datalayout = "e-m:e-p270:32:32-p271:32:32-p272:64:64-i64:64-i128:128-f80:128-n8:16:32:64-S128"
target triple = "x86_64-pc-linux-gnu"

%struct.varattrib_1b = type { i8, [0 x i8] }
%struct.anon = type { i32, [0 x i8] }
%struct.varattrib_1b_e = type { i8, i8, [0 x i8] }
%struct.FunctionCallInfoBaseData = type { ptr, ptr, ptr, i32, i8, i16, [0 x %struct.NullableDatum] }
%struct.NullableDatum = type { i64, i8 }
%struct.JsonLexContext = type { ptr, i64, i32, ptr, ptr, ptr, i8, i32, i32, i32, i32, ptr, ptr, ptr, i8, ptr, ptr }
%struct.JsonSemAction = type { ptr, ptr, ptr, ptr, ptr, ptr, ptr, ptr, ptr, ptr }
%struct.StringInfoData = type { ptr, i32, i32, i32 }
%struct.StripnullState = type { ptr, ptr, i8 }

; Function Attrs: inlinehint nounwind uwtable
define internal i64 @PointerGetDatum(ptr noundef %0) #3 {
  %2 = alloca ptr, align 8
  store ptr %0, ptr %2, align 8
  %3 = load ptr, ptr %2, align 8
  %4 = ptrtoint ptr %3 to i64
  ret i64 %4
}

; Function Attrs: nounwind uwtable
define dso_local zeroext i1 @pg_parse_json_or_errsave(ptr noundef %0, ptr noundef %1, ptr noundef %2) #0 {
  %4 = alloca i1, align 1
  %5 = alloca ptr, align 8
  %6 = alloca ptr, align 8
  %7 = alloca ptr, align 8
  %8 = alloca i32, align 4
  %9 = alloca i32, align 4
  store ptr %0, ptr %5, align 8
  store ptr %1, ptr %6, align 8
  store ptr %2, ptr %7, align 8
  call void @llvm.lifetime.start.p0(i64 4, ptr %8) #10
  %10 = load ptr, ptr %5, align 8
  %11 = load ptr, ptr %6, align 8
  %12 = call i32 @pg_parse_json(ptr noundef %10, ptr noundef %11)
  store i32 %12, ptr %8, align 4
  %13 = load i32, ptr %8, align 4
  %14 = icmp ne i32 %13, 0
  br i1 %14, label %15, label %19

15:                                               ; preds = %3
  %16 = load i32, ptr %8, align 4
  %17 = load ptr, ptr %5, align 8
  %18 = load ptr, ptr %7, align 8
  call void @json_errsave_error(i32 noundef %16, ptr noundef %17, ptr noundef %18)
  store i1 false, ptr %4, align 1
  store i32 1, ptr %9, align 4
  br label %20

19:                                               ; preds = %3
  store i1 true, ptr %4, align 1
  store i32 1, ptr %9, align 4
  br label %20

20:                                               ; preds = %19, %15
  call void @llvm.lifetime.end.p0(i64 4, ptr %8) #10
  %21 = load i1, ptr %4, align 1
  ret i1 %21
}

; Function Attrs: nounwind uwtable
define dso_local ptr @makeJsonLexContext(ptr noundef %0, ptr noundef %1, i1 noundef zeroext %2) #0 {
  %4 = alloca ptr, align 8
  %5 = alloca ptr, align 8
  %6 = alloca i8, align 1
  store ptr %0, ptr %4, align 8
  store ptr %1, ptr %5, align 8
  %7 = zext i1 %2 to i8
  store i8 %7, ptr %6, align 1
  %8 = load ptr, ptr %5, align 8
  %9 = call ptr @pg_detoast_datum_packed(ptr noundef %8)
  store ptr %9, ptr %5, align 8
  %10 = load ptr, ptr %4, align 8
  %11 = load ptr, ptr %5, align 8
  %12 = getelementptr inbounds nuw %struct.varattrib_1b, ptr %11, i32 0, i32 0
  %13 = load i8, ptr %12, align 1
  %14 = zext i8 %13 to i32
  %15 = and i32 %14, 1
  %16 = icmp eq i32 %15, 1
  br i1 %16, label %17, label %21

17:                                               ; preds = %3
  %18 = load ptr, ptr %5, align 8
  %19 = getelementptr inbounds nuw %struct.varattrib_1b, ptr %18, i32 0, i32 1
  %20 = getelementptr inbounds [0 x i8], ptr %19, i64 0, i64 0
  br label %25

21:                                               ; preds = %3
  %22 = load ptr, ptr %5, align 8
  %23 = getelementptr inbounds nuw %struct.anon, ptr %22, i32 0, i32 1
  %24 = getelementptr inbounds [0 x i8], ptr %23, i64 0, i64 0
  br label %25

25:                                               ; preds = %21, %17
  %26 = phi ptr [ %20, %17 ], [ %24, %21 ]
  %27 = load ptr, ptr %5, align 8
  %28 = getelementptr inbounds nuw %struct.varattrib_1b, ptr %27, i32 0, i32 0
  %29 = load i8, ptr %28, align 1
  %30 = zext i8 %29 to i32
  %31 = icmp eq i32 %30, 1
  br i1 %31, label %32, label %60

32:                                               ; preds = %25
  %33 = load ptr, ptr %5, align 8
  %34 = getelementptr inbounds nuw %struct.varattrib_1b_e, ptr %33, i32 0, i32 1
  %35 = load i8, ptr %34, align 1
  %36 = zext i8 %35 to i32
  %37 = icmp eq i32 %36, 1
  br i1 %37, label %38, label %39

38:                                               ; preds = %32
  br label %56

39:                                               ; preds = %32
  %40 = load ptr, ptr %5, align 8
  %41 = getelementptr inbounds nuw %struct.varattrib_1b_e, ptr %40, i32 0, i32 1
  %42 = load i8, ptr %41, align 1
  %43 = zext i8 %42 to i32
  %44 = and i32 %43, -2
  %45 = icmp eq i32 %44, 2
  br i1 %45, label %46, label %47

46:                                               ; preds = %39
  br label %54

47:                                               ; preds = %39
  %48 = load ptr, ptr %5, align 8
  %49 = getelementptr inbounds nuw %struct.varattrib_1b_e, ptr %48, i32 0, i32 1
  %50 = load i8, ptr %49, align 1
  %51 = zext i8 %50 to i32
  %52 = icmp eq i32 %51, 18
  %53 = select i1 %52, i64 16, i64 0
  br label %54

54:                                               ; preds = %47, %46
  %55 = phi i64 [ 8, %46 ], [ %53, %47 ]
  br label %56

56:                                               ; preds = %54, %38
  %57 = phi i64 [ 8, %38 ], [ %55, %54 ]
  %58 = add i64 2, %57
  %59 = sub i64 %58, 2
  br label %86

60:                                               ; preds = %25
  %61 = load ptr, ptr %5, align 8
  %62 = getelementptr inbounds nuw %struct.varattrib_1b, ptr %61, i32 0, i32 0
  %63 = load i8, ptr %62, align 1
  %64 = zext i8 %63 to i32
  %65 = and i32 %64, 1
  %66 = icmp eq i32 %65, 1
  br i1 %66, label %67, label %76

67:                                               ; preds = %60
  %68 = load ptr, ptr %5, align 8
  %69 = getelementptr inbounds nuw %struct.varattrib_1b, ptr %68, i32 0, i32 0
  %70 = load i8, ptr %69, align 1
  %71 = zext i8 %70 to i32
  %72 = ashr i32 %71, 1
  %73 = and i32 %72, 127
  %74 = sext i32 %73 to i64
  %75 = sub i64 %74, 1
  br label %84

76:                                               ; preds = %60
  %77 = load ptr, ptr %5, align 8
  %78 = getelementptr inbounds nuw %struct.anon, ptr %77, i32 0, i32 0
  %79 = load i32, ptr %78, align 4
  %80 = lshr i32 %79, 2
  %81 = and i32 %80, 1073741823
  %82 = sub i32 %81, 4
  %83 = zext i32 %82 to i64
  br label %84

84:                                               ; preds = %76, %67
  %85 = phi i64 [ %75, %67 ], [ %83, %76 ]
  br label %86

86:                                               ; preds = %84, %56
  %87 = phi i64 [ %59, %56 ], [ %85, %84 ]
  %88 = call i32 @GetDatabaseEncoding()
  %89 = load i8, ptr %6, align 1, !range !4, !noundef !5
  %90 = trunc i8 %89 to i1
  %91 = call ptr @makeJsonLexContextCstringLen(ptr noundef %10, ptr noundef %26, i64 noundef %87, i32 noundef %88, i1 noundef zeroext %90)
  ret ptr %91
}

; Function Attrs: inlinehint nounwind uwtable
define internal ptr @DatumGetPointer(i64 noundef %0) #3 {
  %2 = alloca i64, align 8
  store i64 %0, ptr %2, align 8
  %3 = load i64, ptr %2, align 8
  %4 = inttoptr i64 %3 to ptr
  ret ptr %4
}

; Function Attrs: nounwind uwtable
define dso_local i64 @json_strip_nulls(ptr noundef %0) #0 {
  %2 = alloca ptr, align 8
  %3 = alloca ptr, align 8
  %4 = alloca ptr, align 8
  %5 = alloca %struct.JsonLexContext, align 8
  %6 = alloca ptr, align 8
  store ptr %0, ptr %2, align 8
  call void @llvm.lifetime.start.p0(i64 8, ptr %3) #10
  %7 = load ptr, ptr %2, align 8
  %8 = getelementptr inbounds nuw %struct.FunctionCallInfoBaseData, ptr %7, i32 0, i32 6
  %9 = getelementptr inbounds [0 x %struct.NullableDatum], ptr %8, i64 0, i64 0
  %10 = getelementptr inbounds nuw %struct.NullableDatum, ptr %9, i32 0, i32 0
  %11 = load i64, ptr %10, align 8
  %12 = call ptr @DatumGetPointer(i64 noundef %11)
  %13 = call ptr @pg_detoast_datum_packed(ptr noundef %12)
  store ptr %13, ptr %3, align 8
  call void @llvm.lifetime.start.p0(i64 8, ptr %4) #10
  call void @llvm.lifetime.start.p0(i64 120, ptr %5) #10
  call void @llvm.lifetime.start.p0(i64 8, ptr %6) #10
  %14 = call ptr @palloc0(i64 noundef 24)
  store ptr %14, ptr %4, align 8
  %15 = call ptr @palloc0(i64 noundef 80)
  store ptr %15, ptr %6, align 8
  %16 = load ptr, ptr %3, align 8
  %17 = call ptr @makeJsonLexContext(ptr noundef %5, ptr noundef %16, i1 noundef zeroext true)
  %18 = load ptr, ptr %4, align 8
  %19 = getelementptr inbounds nuw %struct.StripnullState, ptr %18, i32 0, i32 0
  store ptr %17, ptr %19, align 8
  %20 = call ptr @makeStringInfo()
  %21 = load ptr, ptr %4, align 8
  %22 = getelementptr inbounds nuw %struct.StripnullState, ptr %21, i32 0, i32 1
  store ptr %20, ptr %22, align 8
  %23 = load ptr, ptr %4, align 8
  %24 = getelementptr inbounds nuw %struct.StripnullState, ptr %23, i32 0, i32 2
  store i8 0, ptr %24, align 8
  %25 = load ptr, ptr %4, align 8
  %26 = load ptr, ptr %6, align 8
  %27 = getelementptr inbounds nuw %struct.JsonSemAction, ptr %26, i32 0, i32 0
  store ptr %25, ptr %27, align 8
  %28 = load ptr, ptr %6, align 8
  %29 = getelementptr inbounds nuw %struct.JsonSemAction, ptr %28, i32 0, i32 1
  store ptr @sn_object_start, ptr %29, align 8
  %30 = load ptr, ptr %6, align 8
  %31 = getelementptr inbounds nuw %struct.JsonSemAction, ptr %30, i32 0, i32 2
  store ptr @sn_object_end, ptr %31, align 8
  %32 = load ptr, ptr %6, align 8
  %33 = getelementptr inbounds nuw %struct.JsonSemAction, ptr %32, i32 0, i32 3
  store ptr @sn_array_start, ptr %33, align 8
  %34 = load ptr, ptr %6, align 8
  %35 = getelementptr inbounds nuw %struct.JsonSemAction, ptr %34, i32 0, i32 4
  store ptr @sn_array_end, ptr %35, align 8
  %36 = load ptr, ptr %6, align 8
  %37 = getelementptr inbounds nuw %struct.JsonSemAction, ptr %36, i32 0, i32 9
  store ptr @sn_scalar, ptr %37, align 8
  %38 = load ptr, ptr %6, align 8
  %39 = getelementptr inbounds nuw %struct.JsonSemAction, ptr %38, i32 0, i32 7
  store ptr @sn_array_element_start, ptr %39, align 8
  %40 = load ptr, ptr %6, align 8
  %41 = getelementptr inbounds nuw %struct.JsonSemAction, ptr %40, i32 0, i32 5
  store ptr @sn_object_field_start, ptr %41, align 8
  %42 = load ptr, ptr %6, align 8
  %43 = call zeroext i1 @pg_parse_json_or_errsave(ptr noundef %5, ptr noundef %42, ptr noundef null)
  %44 = load ptr, ptr %4, align 8
  %45 = getelementptr inbounds nuw %struct.StripnullState, ptr %44, i32 0, i32 1
  %46 = load ptr, ptr %45, align 8
  %47 = getelementptr inbounds nuw %struct.StringInfoData, ptr %46, i32 0, i32 0
  %48 = load ptr, ptr %47, align 8
  %49 = load ptr, ptr %4, align 8
  %50 = getelementptr inbounds nuw %struct.StripnullState, ptr %49, i32 0, i32 1
  %51 = load ptr, ptr %50, align 8
  %52 = getelementptr inbounds nuw %struct.StringInfoData, ptr %51, i32 0, i32 1
  %53 = load i32, ptr %52, align 8
  %54 = call ptr @cstring_to_text_with_len(ptr noundef %48, i32 noundef %53)
  %55 = call i64 @PointerGetDatum(ptr noundef %54)
  call void @llvm.lifetime.end.p0(i64 8, ptr %6) #10
  call void @llvm.lifetime.end.p0(i64 120, ptr %5) #10
  call void @llvm.lifetime.end.p0(i64 8, ptr %4) #10
  call void @llvm.lifetime.end.p0(i64 8, ptr %3) #10
  ret i64 %55
}