; Function Attrs: nounwind uwtable
define dso_local i64 @json_strip_nulls(ptr noundef readonly captures(none) %0) local_unnamed_addr #0 {
  %2 = alloca %struct.JsonLexContext, align 8
  %3 = getelementptr inbounds nuw i8, ptr %0, i64 32
  %4 = load i64, ptr %3, align 8
  %5 = inttoptr i64 %4 to ptr
  %6 = tail call ptr @pg_detoast_datum_packed(ptr noundef %5) #15
  call void @llvm.lifetime.start.p0(i64 120, ptr nonnull %2) #15
  %7 = tail call ptr @palloc0(i64 noundef 24) #15
  %8 = tail call ptr @palloc0(i64 noundef 80) #15
  %9 = tail call ptr @pg_detoast_datum_packed(ptr noundef %6) #15
  %10 = load i8, ptr %9, align 1
  %11 = zext i8 %10 to i32
  %12 = and i32 %11, 1
  %.not.i = icmp eq i32 %12, 0
  %13 = getelementptr inbounds nuw i8, ptr %9, i64 1
  %14 = icmp eq i8 %10, 1
  br i1 %14, label %15, label %23

15:                                               ; preds = %1
  %16 = load i8, ptr %13, align 1
  %17 = icmp eq i8 %16, 1
  %18 = and i8 %16, -2
  %19 = icmp eq i8 %18, 2
  %or.cond.i = or i1 %17, %19
  %20 = icmp eq i8 %16, 18
  %21 = select i1 %20, i64 16, i64 0
  %22 = select i1 %or.cond.i, i64 8, i64 %21
  br label %makeJsonLexContext.exit

23:                                               ; preds = %1
  br i1 %.not.i, label %28, label %24

24:                                               ; preds = %23
  %25 = lshr i32 %11, 1
  %26 = zext nneg i32 %25 to i64
  %27 = add nsw i64 %26, -1
  br label %makeJsonLexContext.exit

28:                                               ; preds = %23
  %29 = load i32, ptr %9, align 4
  %30 = lshr i32 %29, 2
  %31 = add nsw i32 %30, -4
  %32 = zext i32 %31 to i64
  br label %makeJsonLexContext.exit

makeJsonLexContext.exit:                          ; preds = %15, %24, %28
  %33 = phi i64 [ %22, %15 ], [ %27, %24 ], [ %32, %28 ]
  %34 = getelementptr inbounds nuw i8, ptr %9, i64 4
  %35 = select i1 %.not.i, ptr %34, ptr %13
  %36 = tail call i32 @GetDatabaseEncoding() #15
  %37 = call ptr @makeJsonLexContextCstringLen(ptr noundef nonnull %2, ptr noundef nonnull %35, i64 noundef %33, i32 noundef %36, i1 noundef zeroext true) #15
  store ptr %37, ptr %7, align 8
  %38 = call ptr @makeStringInfo() #15
  %39 = getelementptr inbounds nuw i8, ptr %7, i64 8
  store ptr %38, ptr %39, align 8
  %40 = getelementptr inbounds nuw i8, ptr %7, i64 16
  store i8 0, ptr %40, align 8
  store ptr %7, ptr %8, align 8
  %41 = getelementptr inbounds nuw i8, ptr %8, i64 8
  store ptr @sn_object_start, ptr %41, align 8
  %42 = getelementptr inbounds nuw i8, ptr %8, i64 16
  store ptr @sn_object_end, ptr %42, align 8
  %43 = getelementptr inbounds nuw i8, ptr %8, i64 24
  store ptr @sn_array_start, ptr %43, align 8
  %44 = getelementptr inbounds nuw i8, ptr %8, i64 32
  store ptr @sn_array_end, ptr %44, align 8
  %45 = getelementptr inbounds nuw i8, ptr %8, i64 72
  store ptr @sn_scalar, ptr %45, align 8
  %46 = getelementptr inbounds nuw i8, ptr %8, i64 56
  store ptr @sn_array_element_start, ptr %46, align 8
  %47 = getelementptr inbounds nuw i8, ptr %8, i64 40
  store ptr @sn_object_field_start, ptr %47, align 8
  %48 = call i32 @pg_parse_json(ptr noundef nonnull %2, ptr noundef nonnull %8) #15
  %.not.i17 = icmp eq i32 %48, 0
  br i1 %.not.i17, label %pg_parse_json_or_errsave.exit, label %49

49:                                               ; preds = %makeJsonLexContext.exit
  call void @json_errsave_error(i32 noundef %48, ptr noundef nonnull %2, ptr noundef null)
  br label %pg_parse_json_or_errsave.exit

pg_parse_json_or_errsave.exit:                    ; preds = %makeJsonLexContext.exit, %49
  %50 = load ptr, ptr %39, align 8
  %51 = load ptr, ptr %50, align 8
  %52 = getelementptr inbounds nuw i8, ptr %50, i64 8
  %53 = load i32, ptr %52, align 8
  %54 = call ptr @cstring_to_text_with_len(ptr noundef %51, i32 noundef %53) #15
  %55 = ptrtoint ptr %54 to i64
  call void @llvm.lifetime.end.p0(i64 120, ptr nonnull %2) #15
  ret i64 %55
}